; Function Attrs: mustprogress uwtable
define dso_local void @_ZN5ImGui13BeginDisabledEb(i1 noundef zeroext %0) local_unnamed_addr #0 {
  %2 = load ptr, ptr @GImGui, align 8, !tbaa !211
  %3 = getelementptr inbounds nuw i8, ptr %2, i64 7368
  %4 = load i32, ptr %3, align 8, !tbaa !604
  %5 = and i32 %4, 1024
  %.not = icmp ne i32 %5, 0
  %.not12 = xor i1 %0, true
  %brmerge = or i1 %.not, %.not12
  br i1 %brmerge, label %13, label %6

6:                                                ; preds = %1
  %7 = getelementptr inbounds nuw i8, ptr %2, i64 3016
  %8 = load float, ptr %7, align 8, !tbaa !1065
  %9 = getelementptr inbounds nuw i8, ptr %2, i64 9344
  store float %8, ptr %9, align 8, !tbaa !1064
  %10 = getelementptr inbounds nuw i8, ptr %2, i64 3020
  %11 = load float, ptr %10, align 4, !tbaa !1180
  %12 = fmul float %8, %11
  store float %12, ptr %7, align 8, !tbaa !1065
  br label %13

13:                                               ; preds = %1, %6
  %brmerge14 = or i1 %0, %.not
  br i1 %brmerge14, label %14, label %16

14:                                               ; preds = %13
  %15 = or i32 %4, 1024
  store i32 %15, ptr %3, align 8, !tbaa !604
  br label %16

16:                                               ; preds = %13, %14
  %17 = getelementptr inbounds nuw i8, ptr %2, i64 7696
  tail call void @_ZN8ImVectorIiE9push_backERKi(ptr noundef nonnull align 8 dereferenceable(16) %17, ptr noundef nonnull align 4 dereferenceable(4) %3)
  %18 = getelementptr inbounds nuw i8, ptr %2, i64 9348
  %19 = load i16, ptr %18, align 4, !tbaa !1025
  %20 = add i16 %19, 1
  store i16 %20, ptr %18, align 4, !tbaa !1025
  ret void
}